; Function Attrs: mustprogress null_pointer_is_valid sspstrong uwtable
define void @_Z18val_ext_to_qstringjP17_value_string_extPKc(ptr dead_on_unwind noalias writable sret(%class.QString) align 8 initializes((0, 24)) %0, i32 noundef %1, ptr noundef %2, ptr noundef %3) local_unnamed_addr #0 personality ptr @__gxx_personality_v0 {
  %5 = alloca %class.QString, align 8
  tail call void @llvm.memset.p0.i64(ptr noundef align 8 dereferenceable(24) dereferenceable_or_null(24) %0, i8 0, i64 24, i1 false)
  %6 = invoke ptr @val_to_str_ext_wmem(ptr noundef null, i32 noundef %1, ptr noundef %2, ptr noundef %3)
          to label %7 unwind label %23

7:                                                ; preds = %4
  call void @llvm.lifetime.start.p0(i64 24, ptr nonnull %5) #21
  %.not.i.i = icmp eq ptr %6, null
  br i1 %.not.i.i, label %_ZN14QByteArrayViewC2IPKcTnNSt9enable_ifIXsr9QtPrivate28IsCompatibleByteArrayPointerIT_EE5valueEbE4typeELb1EEERKS4_.exit.i, label %.split.i.i

.split.i.i:                                       ; preds = %7
  %8 = tail call noundef i64 @strlen(ptr noundef nonnull dereferenceable(1) %6) #21
  br label %_ZN14QByteArrayViewC2IPKcTnNSt9enable_ifIXsr9QtPrivate28IsCompatibleByteArrayPointerIT_EE5valueEbE4typeELb1EEERKS4_.exit.i

_ZN14QByteArrayViewC2IPKcTnNSt9enable_ifIXsr9QtPrivate28IsCompatibleByteArrayPointerIT_EE5valueEbE4typeELb1EEERKS4_.exit.i: ; preds = %.split.i.i, %7
  %.sink5.i.i = phi i64 [ %8, %.split.i.i ], [ 0, %7 ]
  invoke void @_ZN7QString8fromUtf8E14QByteArrayView(ptr dead_on_unwind nonnull writable sret(%class.QString) align 8 %5, i64 %.sink5.i.i, ptr %6)
          to label %.noexc unwind label %23

.noexc:                                           ; preds = %_ZN14QByteArrayViewC2IPKcTnNSt9enable_ifIXsr9QtPrivate28IsCompatibleByteArrayPointerIT_EE5valueEbE4typeELb1EEERKS4_.exit.i
  %9 = load ptr, ptr %0, align 8
  %10 = load ptr, ptr %5, align 8
  store ptr %10, ptr %0, align 8
  store ptr %9, ptr %5, align 8
  %11 = getelementptr inbounds nuw i8, ptr %0, i64 8
  %12 = getelementptr inbounds nuw i8, ptr %5, i64 8
  %13 = load ptr, ptr %11, align 8
  %14 = load ptr, ptr %12, align 8
  store ptr %14, ptr %11, align 8
  store ptr %13, ptr %12, align 8
  %15 = getelementptr inbounds nuw i8, ptr %0, i64 16
  %16 = getelementptr inbounds nuw i8, ptr %5, i64 16
  %17 = load i64, ptr %15, align 8
  %18 = load i64, ptr %16, align 8
  store i64 %18, ptr %15, align 8
  store i64 %17, ptr %16, align 8
  %.not.i.i.i.i = icmp eq ptr %9, null
  br i1 %.not.i.i.i.i, label %22, label %_ZN17QArrayDataPointerIDsE5derefEv.exit.i.i.i

_ZN17QArrayDataPointerIDsE5derefEv.exit.i.i.i:    ; preds = %.noexc
  %19 = atomicrmw sub ptr %9, i32 1 seq_cst, align 4
  %.not.i.i.i = icmp eq i32 %19, 1
  br i1 %.not.i.i.i, label %20, label %22

20:                                               ; preds = %_ZN17QArrayDataPointerIDsE5derefEv.exit.i.i.i
  %21 = load ptr, ptr %5, align 8
  call void @_ZN10QArrayData10deallocateEPS_xx(ptr noundef %21, i64 noundef 2, i64 noundef 8) #21
  br label %22

22:                                               ; preds = %20, %_ZN17QArrayDataPointerIDsE5derefEv.exit.i.i.i, %.noexc
  call void @llvm.lifetime.end.p0(i64 24, ptr nonnull %5) #21
  invoke void @wmem_free(ptr noundef null, ptr noundef %6)
          to label %25 unwind label %23

23:                                               ; preds = %_ZN14QByteArrayViewC2IPKcTnNSt9enable_ifIXsr9QtPrivate28IsCompatibleByteArrayPointerIT_EE5valueEbE4typeELb1EEERKS4_.exit.i, %22, %4
  %24 = landingpad { ptr, i32 }
          cleanup
  call void @_ZN7QStringD2Ev(ptr noundef align 8 dereferenceable_or_null(24) %0) #21
  resume { ptr, i32 } %24

25:                                               ; preds = %22
  ret void
}